; Function Attrs: nounwind uwtable
define internal void @local_resolve_release_cbfunc(ptr noundef %0) #1 {
  %2 = load i32, ptr getelementptr inbounds nuw (i8, ptr @pmix_globals, i64 392), align 8, !tbaa !121
  %or.cond = icmp ult i32 %2, 64
  br i1 %or.cond, label %3, label %9

3:                                                ; preds = %1
  %4 = zext nneg i32 %2 to i64
  %5 = getelementptr inbounds nuw [0 x %struct.pmix_output_desc_t], ptr @pmix_output_info, i64 0, i64 %4, i32 2
  %6 = load i32, ptr %5, align 4, !tbaa !89
  %7 = icmp sgt i32 %6, 1
  br i1 %7, label %8, label %9

8:                                                ; preds = %3
  tail call void (i32, ptr, ...) @pmix_output(i32 noundef %2, ptr noundef nonnull @.str.28) #14
  br label %9

9:                                                ; preds = %8, %3, %1
  %.not = icmp eq ptr %0, null
  br i1 %.not, label %34, label %10

10:                                               ; preds = %9
  %11 = tail call i32 @pthread_mutex_lock(ptr noundef nonnull %0) #14
  %12 = icmp eq i32 %11, 35
  br i1 %12, label %13, label %pmix_obj_update.exit

13:                                               ; preds = %10
  %14 = tail call ptr @__errno_location() #16
  store i32 35, ptr %14, align 4, !tbaa !37
  tail call void @perror(ptr noundef nonnull @.str.16) #17
  tail call void @abort() #18
  unreachable

pmix_obj_update.exit:                             ; preds = %10
  %15 = getelementptr inbounds nuw i8, ptr %0, i64 48
  %16 = load i32, ptr %15, align 8, !tbaa !41
  %17 = add nsw i32 %16, -1
  store i32 %17, ptr %15, align 8, !tbaa !41
  %18 = tail call i32 @pthread_mutex_unlock(ptr noundef nonnull %0) #14
  %19 = icmp eq i32 %17, 0
  br i1 %19, label %20, label %34

20:                                               ; preds = %pmix_obj_update.exit
  %21 = getelementptr inbounds nuw i8, ptr %0, i64 40
  %22 = load ptr, ptr %21, align 8, !tbaa !40
  %23 = getelementptr inbounds nuw i8, ptr %22, i64 48
  %24 = load ptr, ptr %23, align 8, !tbaa !99
  %25 = load ptr, ptr %24, align 8, !tbaa !43
  %.not6.i = icmp eq ptr %25, null
  br i1 %.not6.i, label %pmix_obj_run_destructors.exit, label %.lr.ph.i

.lr.ph.i:                                         ; preds = %20, %.lr.ph.i
  %26 = phi ptr [ %28, %.lr.ph.i ], [ %25, %20 ]
  %.07.i = phi ptr [ %27, %.lr.ph.i ], [ %24, %20 ]
  tail call void %26(ptr noundef nonnull %0) #14
  %27 = getelementptr inbounds nuw i8, ptr %.07.i, i64 8
  %28 = load ptr, ptr %27, align 8, !tbaa !43
  %.not.i = icmp eq ptr %28, null
  br i1 %.not.i, label %pmix_obj_run_destructors.exit, label %.lr.ph.i, !llvm.loop !100

pmix_obj_run_destructors.exit:                    ; preds = %.lr.ph.i, %20
  %29 = getelementptr inbounds nuw i8, ptr %0, i64 96
  %30 = load ptr, ptr %29, align 8, !tbaa !114
  %.not11 = icmp eq ptr %30, null
  br i1 %.not11, label %33, label %31

31:                                               ; preds = %pmix_obj_run_destructors.exit
  %32 = getelementptr inbounds nuw i8, ptr %0, i64 56
  tail call void %30(ptr noundef nonnull %32, ptr noundef nonnull %0) #14
  br label %34

33:                                               ; preds = %pmix_obj_run_destructors.exit
  tail call void @free(ptr noundef nonnull %0) #14
  br label %34

34:                                               ; preds = %pmix_obj_update.exit, %33, %31, %9
  ret void
}